Certificate:
    Data:
        Version: 3 (0x2)
        Serial Number: 1 (0x1)
    Signature Algorithm: sha1WithRSAEncryption
        Issuer: DC=org, DC=simple, O=Simple Inc, OU=Simple Root CA, CN=Simple Root CA
        Validity
            Not Before: Jul 28 14:06:50 2015 GMT
            Not After : Jul 27 14:06:50 2025 GMT
        Subject: DC=org, DC=simple, O=Simple Inc, OU=Simple Root CA, CN=Simple Root CA
        Subject Public Key Info:
            Public Key Algorithm: rsaEncryption
                Public-Key: (2048 bit)
                Modulus:
                    00:b2:3d:19:42:59:e3:15:48:df:54:c7:72:0b:13:
                    a4:b2:a5:b4:6e:62:e0:fe:c8:78:03:60:85:b4:0c:
                    f7:e0:c9:c2:af:f2:c5:c4:eb:e8:4c:bf:5d:d7:d1:
                    fb:95:ae:5a:47:dc:be:c4:e4:f8:6b:e7:59:22:74:
                    0e:74:80:a1:11:dc:52:9d:5e:3d:48:9b:bb:37:6b:
                    76:eb:d2:ac:55:bb:47:54:fe:d2:79:be:30:7d:72:
                    3d:0f:05:b7:b1:02:60:10:94:1f:63:b0:78:7c:cd:
                    5d:7e:30:50:bb:1c:5f:67:57:2e:1b:20:a9:ef:2a:
                    a4:1d:76:55:6b:66:36:a9:99:0c:a6:52:01:3c:8f:
                    dc:60:05:b4:62:3b:87:15:81:2a:49:a0:74:48:5a:
                    a7:6e:f3:97:62:d9:a3:c3:35:9d:cd:cd:3e:d1:c9:
                    70:ec:4c:71:6b:05:1b:dd:ea:e1:ce:72:8f:c5:16:
                    24:00:80:8d:16:2d:5b:e4:be:1c:24:7c:77:68:ab:
                    31:b3:88:6e:f1:b2:2e:60:d9:3c:da:5e:bf:cc:c2:
                    8c:5c:5c:b1:98:59:56:b0:e3:da:be:31:19:9e:72:
                    cd:52:39:90:04:09:7c:10:e1:aa:d2:1d:ed:80:fe:
                    9c:6e:b6:67:ee:04:32:af:47:7a:9b:85:bd:d9:fb:
                    e8:e5
                Exponent: 65537 (0x10001)
        X509v3 extensions:
            X509v3 Key Usage: critical
                Certificate Sign, CRL Sign
            X509v3 Basic Constraints: critical
                CA:TRUE
            X509v3 Subject Key Identifier: 
                5A:E3:5F:91:2A:BE:31:B6:C2:7F:D1:4D:97:86:8C:A5:F2:F6:D2:65
            X509v3 Authority Key Identifier: 
                keyid:5A:E3:5F:91:2A:BE:31:B6:C2:7F:D1:4D:97:86:8C:A5:F2:F6:D2:65

    Signature Algorithm: sha1WithRSAEncryption
         02:5d:64:9d:ca:5b:64:65:39:32:fc:4d:be:5c:15:f5:ff:8f:
         a1:31:e4:5e:1c:6b:40:e5:d1:1d:d0:f0:07:91:d4:84:ca:f1:
         66:dd:c0:eb:71:35:df:39:b4:be:4e:c1:eb:61:c4:27:f3:45:
         c2:dc:67:4e:b5:a9:e2:8e:ea:c3:e6:3d:52:93:ab:7d:01:09:
         5d:9d:3f:1c:62:78:86:6a:2f:b1:80:b4:bd:f9:06:9f:85:d1:
         51:4d:6b:c8:e2:4d:f9:29:d5:44:ee:73:4d:1c:41:de:d9:b6:
         93:24:3f:c4:ff:db:66:21:d2:c3:5e:06:37:e7:09:e7:f6:7a:
         d1:a6:fd:84:c4:2e:06:4a:14:f5:5a:4f:ad:32:5d:8a:a4:59:
         8c:5c:99:34:ba:0c:b4:18:80:66:fb:57:92:58:e2:1e:88:c0:
         75:30:78:73:cb:19:b9:51:0c:6d:0e:d9:c3:34:fa:23:e4:44:
         18:f8:00:41:dc:14:f6:f3:13:f3:70:60:fc:f7:bc:cc:d5:e6:
         3f:63:53:54:7a:ed:5b:00:2f:d6:3d:4d:0e:0f:92:13:1c:15:
         d1:4d:1c:9e:90:1b:98:62:9e:5b:d2:42:5a:72:10:ce:c1:76:
         85:f4:99:f7:cc:26:97:07:11:67:07:f3:a0:d3:53:a8:19:ed:
         ab:65:3b:05
-----BEGIN CERTIFICATE-----
MIIDxjCCAq6gAwIBAgIBATANBgkqhkiG9w0BAQUFADB0MRMwEQYKCZImiZPyLGQB
GRYDb3JnMRYwFAYKCZImiZPyLGQBGRYGc2ltcGxlMRMwEQYDVQQKDApTaW1wbGUg
SW5jMRcwFQYDVQQLDA5TaW1wbGUgUm9vdCBDQTEXMBUGA1UEAwwOU2ltcGxlIFJv
b3QgQ0EwHhcNMTUwNzI4MTQwNjUwWhcNMjUwNzI3MTQwNjUwWjB0MRMwEQYKCZIm
iZPyLGQBGRYDb3JnMRYwFAYKCZImiZPyLGQBGRYGc2ltcGxlMRMwEQYDVQQKDApT
aW1wbGUgSW5jMRcwFQYDVQQLDA5TaW1wbGUgUm9vdCBDQTEXMBUGA1UEAwwOU2lt
cGxlIFJvb3QgQ0EwggEiMA0GCSqGSIb3DQEBAQUAA4IBDwAwggEKAoIBAQCyPRlC
WeMVSN9Ux3ILE6SypbRuYuD+yHgDYIW0DPfgycKv8sXE6+hMv13X0fuVrlpH3L7E
5Phr51kidA50gKER3FKdXj1Im7s3a3br0qxVu0dU/tJ5vjB9cj0PBbexAmAQlB9j
sHh8zV1+MFC7HF9nVy4bIKnvKqQddlVrZjapmQymUgE8j9xgBbRiO4cVgSpJoHRI
Wqdu85di2aPDNZ3NzT7RyXDsTHFrBRvd6uHOco/FFiQAgI0WLVvkvhwkfHdoqzGz
iG7xsi5g2TzaXr/MwoxcXLGYWVaw49q+MRmecs1SOZAECXwQ4arSHe2A/pxutmfu
BDKvR3qbhb3Z++jlAgMBAAGjYzBhMA4GA1UdDwEB/wQEAwIBBjAPBgNVHRMBAf8E
BTADAQH/MB0GA1UdDgQWBBRa41+RKr4xtsJ/0U2Xhoyl8vbSZTAfBgNVHSMEGDAW
gBRa41+RKr4xtsJ/0U2Xhoyl8vbSZTANBgkqhkiG9w0BAQUFAAOCAQEAAl1kncpb
ZGU5MvxNvlwV9f+PoTHkXhxrQOXRHdDwB5HUhMrxZt3A63E13zm0vk7B62HEJ/NF
wtxnTrWp4o7qw+Y9UpOrfQEJXZ0/HGJ4hmovsYC0vfkGn4XRUU1ryOJN+SnVRO5z
TRxB3tm2kyQ/xP/bZiHSw14GN+cJ5/Z60ab9hMQuBkoU9VpPrTJdiqRZjFyZNLoM
tBiAZvtXkljiHojAdTB4c8sZuVEMbQ7ZwzT6I+REGPgAQdwU9vMT83Bg/Pe8zNXm
P2NTVHrtWwAv1j1NDg+SExwV0U0cnpAbmGKeW9JCWnIQzsF2hfSZ98wmlwcRZwfz
oNNTqBntq2U7BQ==
-----END CERTIFICATE-----
